target datalayout = "e-m:e-p270:32:32-p271:32:32-p272:64:64-i64:64-i128:128-f80:128-n8:16:32:64-S128"
target triple = "x86_64-pc-linux-gnu"

%"class.llvm::pdb::NativeEnumLineNumbers" = type <{ %"class.llvm::pdb::IPDBEnumChildren", %"class.std::vector", i32, [4 x i8] }>
%"class.llvm::pdb::IPDBEnumChildren" = type { ptr }
%"class.std::vector" = type { %"struct.std::_Vector_base" }
%"struct.std::_Vector_base" = type { %"struct.std::_Vector_base<llvm::pdb::NativeLineNumber, std::allocator<llvm::pdb::NativeLineNumber>>::_Vector_impl" }
%"struct.std::_Vector_base<llvm::pdb::NativeLineNumber, std::allocator<llvm::pdb::NativeLineNumber>>::_Vector_impl" = type { %"struct.std::_Vector_base<llvm::pdb::NativeLineNumber, std::allocator<llvm::pdb::NativeLineNumber>>::_Vector_impl_data" }
%"struct.std::_Vector_base<llvm::pdb::NativeLineNumber, std::allocator<llvm::pdb::NativeLineNumber>>::_Vector_impl_data" = type { ptr, ptr, ptr }

; Function Attrs: mustprogress nounwind uwtable
define linkonce_odr hidden noundef i64 @_ZNKSt6vectorIN4llvm3pdb16NativeLineNumberESaIS2_EE4sizeEv(ptr noundef nonnull align 8 dereferenceable(24) %0) #0 comdat align 2 {
  %2 = alloca ptr, align 8
  store ptr %0, ptr %2, align 8
  %3 = load ptr, ptr %2, align 8
  %4 = getelementptr inbounds nuw %"struct.std::_Vector_base", ptr %3, i32 0, i32 0
  %5 = getelementptr inbounds nuw %"struct.std::_Vector_base<llvm::pdb::NativeLineNumber, std::allocator<llvm::pdb::NativeLineNumber>>::_Vector_impl_data", ptr %4, i32 0, i32 1
  %6 = load ptr, ptr %5, align 8
  %7 = getelementptr inbounds nuw %"struct.std::_Vector_base", ptr %3, i32 0, i32 0
  %8 = getelementptr inbounds nuw %"struct.std::_Vector_base<llvm::pdb::NativeLineNumber, std::allocator<llvm::pdb::NativeLineNumber>>::_Vector_impl_data", ptr %7, i32 0, i32 0
  %9 = load ptr, ptr %8, align 8
  %10 = ptrtoint ptr %6 to i64
  %11 = ptrtoint ptr %9 to i64
  %12 = sub i64 %10, %11
  %13 = sdiv exact i64 %12, 48
  ret i64 %13
}

; Function Attrs: mustprogress nounwind uwtable
define dso_local noundef i32 @_ZNK4llvm3pdb21NativeEnumLineNumbers13getChildCountEv(ptr noundef nonnull align 8 dereferenceable(36) %0) unnamed_addr #0 align 2 {
  %2 = alloca ptr, align 8
  store ptr %0, ptr %2, align 8
  %3 = load ptr, ptr %2, align 8
  %4 = getelementptr inbounds nuw %"class.llvm::pdb::NativeEnumLineNumbers", ptr %3, i32 0, i32 1
  %5 = call noundef i64 @_ZNKSt6vectorIN4llvm3pdb16NativeLineNumberESaIS2_EE4sizeEv(ptr noundef nonnull align 8 dereferenceable(24) %4) #6
  %6 = trunc i64 %5 to i32
  ret i32 %6
}